target datalayout = "e-m:e-p270:32:32-p271:32:32-p272:64:64-i64:64-i128:128-f80:128-n8:16:32:64-S128"
target triple = "x86_64-pc-linux-gnu"

%struct._packet_info = type { ptr, ptr, i32, i32, %struct.nstime_t, %struct.nstime_t, %struct.nstime_t, i8, ptr, ptr, ptr, ptr, %struct._address, %struct._address, %struct._address, %struct._address, %struct._address, %struct._address, i32, ptr, i8, [3 x i8], %struct.anon.1, i32, i32, i32, i32, ptr, i8, ptr, ptr, i16, i16, i32, i32, i16, i32, i32, ptr, ptr, ptr, i8, i8, i16, i16, i16, i32, i16, i16, ptr, ptr, ptr, ptr, ptr, i32, i32 }
%struct.nstime_t = type { i64, i32 }
%struct._address = type { i32, i32, ptr, ptr }
%struct.anon.1 = type { i8, [3 x i8] }

@hf_dun_at_cmd = internal global i32 0, align 4
@ett_btdun = internal global i32 0, align 4
@proto_btdun = internal global i32 0, align 4
@ppp_handle = internal global ptr null, align 8
@.str.193 = private unnamed_addr constant [4 x i8] c"DUN\00", align 1
@.str.194 = private unnamed_addr constant [8 x i8] c"%s \22%s\22\00", align 1
@.str.195 = private unnamed_addr constant [5 x i8] c"Sent\00", align 1
@.str.196 = private unnamed_addr constant [5 x i8] c"Rcvd\00", align 1
@.str.197 = private unnamed_addr constant [4 x i8] c"PPP\00", align 1
@.str.198 = private unnamed_addr constant [15 x i8] c"%s <PPP frame>\00", align 1

; Function Attrs: null_pointer_is_valid sspstrong uwtable
define internal i32 @dissect_btdun(ptr noundef %0, ptr noundef %1, ptr noundef %2, ptr noundef %3) #0 {
  %5 = alloca ptr, align 8
  %6 = alloca ptr, align 8
  %7 = alloca ptr, align 8
  %8 = alloca ptr, align 8
  %9 = alloca ptr, align 8
  %10 = alloca ptr, align 8
  %11 = alloca i8, align 1
  %12 = alloca i32, align 4
  %13 = alloca i32, align 4
  store ptr %0, ptr %5, align 8
  store ptr %1, ptr %6, align 8
  store ptr %2, ptr %7, align 8
  store ptr %3, ptr %8, align 8
  call void @llvm.lifetime.start.p0(i64 8, ptr %9) #7
  call void @llvm.lifetime.start.p0(i64 8, ptr %10) #7
  call void @llvm.lifetime.start.p0(i64 1, ptr %11) #7
  call void @llvm.lifetime.start.p0(i64 4, ptr %12) #7
  call void @llvm.lifetime.start.p0(i64 4, ptr %13) #7
  %14 = load ptr, ptr %5, align 8
  %15 = call i32 @tvb_captured_length(ptr noundef %14)
  store i32 %15, ptr %13, align 4
  %16 = load ptr, ptr %6, align 8
  %17 = getelementptr inbounds nuw %struct._packet_info, ptr %16, i32 0, i32 1
  %18 = load ptr, ptr %17, align 8
  call void @col_set_str(ptr noundef %18, i32 noundef 35, ptr noundef @.str.193)
  %19 = load ptr, ptr %7, align 8
  %20 = load i32, ptr @proto_btdun, align 4
  %21 = load ptr, ptr %5, align 8
  %22 = load ptr, ptr %5, align 8
  %23 = call i32 @tvb_captured_length(ptr noundef %22)
  %24 = call ptr @proto_tree_add_item(ptr noundef %19, i32 noundef %20, ptr noundef %21, i32 noundef 0, i32 noundef %23, i32 noundef 0)
  store ptr %24, ptr %9, align 8
  %25 = load ptr, ptr %9, align 8
  %26 = load i32, ptr @ett_btdun, align 4
  %27 = call ptr @proto_item_add_subtree(ptr noundef %25, i32 noundef %26)
  store ptr %27, ptr %10, align 8
  store i8 1, ptr %11, align 1
  store i32 0, ptr %12, align 4
  br label %28

28:                                               ; preds = %44, %4
  %29 = load i32, ptr %12, align 4
  %30 = load i32, ptr %13, align 4
  %31 = icmp ult i32 %29, %30
  br i1 %31, label %32, label %35

32:                                               ; preds = %28
  %33 = load i8, ptr %11, align 1, !range !6, !noundef !7
  %34 = trunc i8 %33 to i1
  br label %35

35:                                               ; preds = %32, %28
  %36 = phi i1 [ false, %28 ], [ %34, %32 ]
  br i1 %36, label %37, label %47

37:                                               ; preds = %35
  %38 = load ptr, ptr %5, align 8
  %39 = load i32, ptr %12, align 4
  %40 = call zeroext i8 @tvb_get_uint8(ptr noundef %38, i32 noundef %39)
  %41 = zext i8 %40 to i32
  %42 = icmp slt i32 %41, 125
  %43 = zext i1 %42 to i8
  store i8 %43, ptr %11, align 1
  br label %44

44:                                               ; preds = %37
  %45 = load i32, ptr %12, align 4
  %46 = add i32 %45, 1
  store i32 %46, ptr %12, align 4
  br label %28, !llvm.loop !8

47:                                               ; preds = %35
  %48 = load i8, ptr %11, align 1, !range !6, !noundef !7
  %49 = trunc i8 %48 to i1
  br i1 %49, label %50, label %71

50:                                               ; preds = %47
  %51 = load ptr, ptr %6, align 8
  %52 = getelementptr inbounds nuw %struct._packet_info, ptr %51, i32 0, i32 1
  %53 = load ptr, ptr %52, align 8
  %54 = load ptr, ptr %6, align 8
  %55 = getelementptr inbounds nuw %struct._packet_info, ptr %54, i32 0, i32 37
  %56 = load i32, ptr %55, align 4
  %57 = icmp eq i32 %56, 0
  %58 = select i1 %57, ptr @.str.195, ptr @.str.196
  %59 = load ptr, ptr %6, align 8
  %60 = getelementptr inbounds nuw %struct._packet_info, ptr %59, i32 0, i32 51
  %61 = load ptr, ptr %60, align 8
  %62 = load ptr, ptr %5, align 8
  %63 = load i32, ptr %13, align 4
  %64 = call ptr @tvb_format_text(ptr noundef %61, ptr noundef %62, i32 noundef 0, i32 noundef %63)
  call void (ptr, i32, ptr, ...) @col_add_fstr(ptr noundef %53, i32 noundef 25, ptr noundef @.str.194, ptr noundef %58, ptr noundef %64)
  %65 = load ptr, ptr %10, align 8
  %66 = load i32, ptr @hf_dun_at_cmd, align 4
  %67 = load ptr, ptr %5, align 8
  %68 = load ptr, ptr %5, align 8
  %69 = call i32 @tvb_reported_length(ptr noundef %68)
  %70 = call ptr @proto_tree_add_item(ptr noundef %65, i32 noundef %66, ptr noundef %67, i32 noundef 0, i32 noundef %69, i32 noundef 0)
  br label %97

71:                                               ; preds = %47
  %72 = load ptr, ptr @ppp_handle, align 8
  %73 = icmp ne ptr %72, null
  br i1 %73, label %74, label %80

74:                                               ; preds = %71
  %75 = load ptr, ptr @ppp_handle, align 8
  %76 = load ptr, ptr %5, align 8
  %77 = load ptr, ptr %6, align 8
  %78 = load ptr, ptr %7, align 8
  %79 = call i32 @call_dissector(ptr noundef %75, ptr noundef %76, ptr noundef %77, ptr noundef %78)
  br label %96

80:                                               ; preds = %71
  %81 = load ptr, ptr %6, align 8
  %82 = getelementptr inbounds nuw %struct._packet_info, ptr %81, i32 0, i32 1
  %83 = load ptr, ptr %82, align 8
  call void @col_set_str(ptr noundef %83, i32 noundef 35, ptr noundef @.str.197)
  %84 = load ptr, ptr %6, align 8
  %85 = getelementptr inbounds nuw %struct._packet_info, ptr %84, i32 0, i32 1
  %86 = load ptr, ptr %85, align 8
  %87 = load ptr, ptr %6, align 8
  %88 = getelementptr inbounds nuw %struct._packet_info, ptr %87, i32 0, i32 37
  %89 = load i32, ptr %88, align 4
  %90 = icmp eq i32 %89, 0
  %91 = select i1 %90, ptr @.str.195, ptr @.str.196
  call void (ptr, i32, ptr, ...) @col_add_fstr(ptr noundef %86, i32 noundef 25, ptr noundef @.str.198, ptr noundef %91)
  %92 = load ptr, ptr %5, align 8
  %93 = load ptr, ptr %6, align 8
  %94 = load ptr, ptr %7, align 8
  %95 = call i32 @call_data_dissector(ptr noundef %92, ptr noundef %93, ptr noundef %94)
  br label %96

96:                                               ; preds = %80, %74
  br label %97

97:                                               ; preds = %96, %50
  %98 = load ptr, ptr %5, align 8
  %99 = call i32 @tvb_reported_length(ptr noundef %98)
  call void @llvm.lifetime.end.p0(i64 4, ptr %13) #7
  call void @llvm.lifetime.end.p0(i64 4, ptr %12) #7
  call void @llvm.lifetime.end.p0(i64 1, ptr %11) #7
  call void @llvm.lifetime.end.p0(i64 8, ptr %10) #7
  call void @llvm.lifetime.end.p0(i64 8, ptr %9) #7
  ret i32 %99
}