; Function Attrs: null_pointer_is_valid sspstrong uwtable
define internal i32 @dissect_btdun(ptr noundef %0, ptr noundef %1, ptr noundef %2, ptr readnone captures(none) %3) #0 {
  %5 = tail call i32 @tvb_captured_length(ptr noundef %0)
  %6 = getelementptr inbounds nuw i8, ptr %1, i64 8
  %7 = load ptr, ptr %6, align 8
  tail call void @col_set_str(ptr noundef %7, i32 noundef 35, ptr noundef nonnull @.str.193)
  %8 = load i32, ptr @proto_btdun, align 4
  %9 = tail call i32 @tvb_captured_length(ptr noundef %0)
  %10 = tail call ptr @proto_tree_add_item(ptr noundef %2, i32 noundef %8, ptr noundef %0, i32 noundef 0, i32 noundef %9, i32 noundef 0)
  %11 = load i32, ptr @ett_btdun, align 4
  %12 = tail call ptr @proto_item_add_subtree(ptr noundef %10, i32 noundef %11)
  %.not33 = icmp eq i32 %5, 0
  br i1 %.not33, label %.critedge, label %.lr.ph

.lr.ph:                                           ; preds = %4, %.lr.ph
  %.03032 = phi i32 [ %15, %.lr.ph ], [ 0, %4 ]
  %13 = tail call zeroext i8 @tvb_get_uint8(ptr noundef %0, i32 noundef %.03032)
  %14 = icmp ult i8 %13, 125
  %15 = add nuw i32 %.03032, 1
  %16 = icmp ult i32 %15, %5
  %17 = select i1 %16, i1 %14, i1 false
  br i1 %17, label %.lr.ph, label %._crit_edge, !llvm.loop !11

._crit_edge:                                      ; preds = %.lr.ph
  br i1 %14, label %.critedge, label %29

.critedge:                                        ; preds = %4, %._crit_edge
  %18 = load ptr, ptr %6, align 8
  %19 = getelementptr inbounds nuw i8, ptr %1, i64 348
  %20 = load i32, ptr %19, align 4
  %21 = icmp eq i32 %20, 0
  %22 = select i1 %21, ptr @.str.195, ptr @.str.196
  %23 = getelementptr inbounds nuw i8, ptr %1, i64 408
  %24 = load ptr, ptr %23, align 8
  %25 = tail call ptr @tvb_format_text(ptr noundef %24, ptr noundef %0, i32 noundef 0, i32 noundef %5)
  tail call void (ptr, i32, ptr, ...) @col_add_fstr(ptr noundef %18, i32 noundef 25, ptr noundef nonnull @.str.194, ptr noundef nonnull %22, ptr noundef %25)
  %26 = load i32, ptr @hf_dun_at_cmd, align 4
  %27 = tail call i32 @tvb_reported_length(ptr noundef %0)
  %28 = tail call ptr @proto_tree_add_item(ptr noundef %12, i32 noundef %26, ptr noundef %0, i32 noundef 0, i32 noundef %27, i32 noundef 0)
  br label %41

29:                                               ; preds = %._crit_edge
  %30 = load ptr, ptr @ppp_handle, align 8
  %.not = icmp eq ptr %30, null
  br i1 %.not, label %33, label %31

31:                                               ; preds = %29
  %32 = tail call i32 @call_dissector(ptr noundef nonnull %30, ptr noundef %0, ptr noundef %1, ptr noundef %2)
  br label %41

33:                                               ; preds = %29
  %34 = load ptr, ptr %6, align 8
  tail call void @col_set_str(ptr noundef %34, i32 noundef 35, ptr noundef nonnull @.str.197)
  %35 = load ptr, ptr %6, align 8
  %36 = getelementptr inbounds nuw i8, ptr %1, i64 348
  %37 = load i32, ptr %36, align 4
  %38 = icmp eq i32 %37, 0
  %39 = select i1 %38, ptr @.str.195, ptr @.str.196
  tail call void (ptr, i32, ptr, ...) @col_add_fstr(ptr noundef %35, i32 noundef 25, ptr noundef nonnull @.str.198, ptr noundef nonnull %39)
  %40 = tail call i32 @call_data_dissector(ptr noundef %0, ptr noundef %1, ptr noundef %2)
  br label %41

41:                                               ; preds = %31, %33, %.critedge
  %42 = tail call i32 @tvb_reported_length(ptr noundef %0)
  ret i32 %42
}